; ModuleID = '24/38.c'
source_filename = "24/38.c"
target datalayout = "e-m:e-p270:32:32-p271:32:32-p272:64:64-i64:64-f80:128-n8:16:32:64-S128"
target triple = "x86_64-pc-linux-gnu"

@.str = private unnamed_addr constant [3 x i8] c"%c\00", align 1
@.str.1 = private unnamed_addr constant [2 x i8] c"\0A\00", align 1

; Function Attrs: noinline nounwind uwtable
define dso_local i32 @main() #0 {
  %1 = alloca i32, align 4
  %2 = alloca [1000 x i8], align 16
  %3 = alloca i32, align 4
  %4 = alloca i32, align 4
  %5 = alloca [100 x i32], align 16
  %6 = alloca i32, align 4
  %7 = alloca i32, align 4
  %8 = alloca i32, align 4
  %9 = alloca [100 x i32], align 16
  %10 = alloca i32, align 4
  %11 = alloca i32, align 4
  store i32 0, i32* %1, align 4
  store i32 0, i32* %3, align 4
  store i32 50, i32* %4, align 4
  store i32 0, i32* %10, align 4
  %12 = getelementptr inbounds [1000 x i8], [1000 x i8]* %2, i64 0, i64 0
  %13 = call i32 (i8*, ...) bitcast (i32 (...)* @gets to i32 (i8*, ...)*)(i8* %12)
  %14 = getelementptr inbounds [1000 x i8], [1000 x i8]* %2, i64 0, i64 0
  %15 = call i64 @strlen(i8* %14) #3
  %16 = trunc i64 %15 to i32
  store i32 %16, i32* %11, align 4
  store i32 0, i32* %6, align 4
  br label %17

17:                                               ; preds = %37, %0
  %18 = load i32, i32* %6, align 4
  %19 = load i32, i32* %11, align 4
  %20 = icmp slt i32 %18, %19
  br i1 %20, label %21, label %40

21:                                               ; preds = %17
  %22 = getelementptr inbounds [1000 x i8], [1000 x i8]* %2, i64 0, i64 0
  %23 = load i32, i32* %6, align 4
  %24 = sext i32 %23 to i64
  %25 = getelementptr inbounds i8, i8* %22, i64 %24
  %26 = load i8, i8* %25, align 1
  %27 = sext i8 %26 to i32
  %28 = icmp eq i32 %27, 32
  br i1 %28, label %29, label %36

29:                                               ; preds = %21
  %30 = load i32, i32* %10, align 4
  %31 = add nsw i32 %30, 1
  store i32 %31, i32* %10, align 4
  %32 = load i32, i32* %6, align 4
  %33 = load i32, i32* %10, align 4
  %34 = sext i32 %33 to i64
  %35 = getelementptr inbounds [100 x i32], [100 x i32]* %5, i64 0, i64 %34
  store i32 %32, i32* %35, align 4
  br label %36

36:                                               ; preds = %29, %21
  br label %37

37:                                               ; preds = %36
  %38 = load i32, i32* %6, align 4
  %39 = add nsw i32 %38, 1
  store i32 %39, i32* %6, align 4
  br label %17

40:                                               ; preds = %17
  %41 = load i32, i32* %11, align 4
  %42 = getelementptr inbounds [100 x i32], [100 x i32]* %5, i64 0, i64 0
  %43 = load i32, i32* %10, align 4
  %44 = sext i32 %43 to i64
  %45 = getelementptr inbounds i32, i32* %42, i64 %44
  %46 = getelementptr inbounds i32, i32* %45, i64 1
  store i32 %41, i32* %46, align 4
  %47 = getelementptr inbounds [100 x i32], [100 x i32]* %5, i64 0, i64 0
  store i32 -1, i32* %47, align 16
  %48 = getelementptr inbounds [100 x i32], [100 x i32]* %9, i64 0, i64 0
  store i32 0, i32* %48, align 16
  store i32 1, i32* %6, align 4
  br label %49

49:                                               ; preds = %69, %40
  %50 = load i32, i32* %6, align 4
  %51 = load i32, i32* %10, align 4
  %52 = add nsw i32 %51, 1
  %53 = icmp sle i32 %50, %52
  br i1 %53, label %54, label %72

54:                                               ; preds = %49
  %55 = load i32, i32* %6, align 4
  %56 = sext i32 %55 to i64
  %57 = getelementptr inbounds [100 x i32], [100 x i32]* %5, i64 0, i64 %56
  %58 = load i32, i32* %57, align 4
  %59 = load i32, i32* %6, align 4
  %60 = sub nsw i32 %59, 1
  %61 = sext i32 %60 to i64
  %62 = getelementptr inbounds [100 x i32], [100 x i32]* %5, i64 0, i64 %61
  %63 = load i32, i32* %62, align 4
  %64 = sub nsw i32 %58, %63
  %65 = sub nsw i32 %64, 1
  %66 = load i32, i32* %6, align 4
  %67 = sext i32 %66 to i64
  %68 = getelementptr inbounds [100 x i32], [100 x i32]* %9, i64 0, i64 %67
  store i32 %65, i32* %68, align 4
  br label %69

69:                                               ; preds = %54
  %70 = load i32, i32* %6, align 4
  %71 = add nsw i32 %70, 1
  store i32 %71, i32* %6, align 4
  br label %49

72:                                               ; preds = %49
  store i32 1, i32* %6, align 4
  br label %73

73:                                               ; preds = %107, %72
  %74 = load i32, i32* %6, align 4
  %75 = load i32, i32* %10, align 4
  %76 = add nsw i32 %75, 1
  %77 = icmp sle i32 %74, %76
  br i1 %77, label %78, label %110

78:                                               ; preds = %73
  %79 = load i32, i32* %3, align 4
  %80 = getelementptr inbounds [100 x i32], [100 x i32]* %9, i64 0, i64 0
  %81 = load i32, i32* %6, align 4
  %82 = sext i32 %81 to i64
  %83 = getelementptr inbounds i32, i32* %80, i64 %82
  %84 = load i32, i32* %83, align 4
  %85 = icmp slt i32 %79, %84
  br i1 %85, label %86, label %92

86:                                               ; preds = %78
  %87 = load i32, i32* %6, align 4
  %88 = sext i32 %87 to i64
  %89 = getelementptr inbounds [100 x i32], [100 x i32]* %9, i64 0, i64 %88
  %90 = load i32, i32* %89, align 4
  store i32 %90, i32* %3, align 4
  %91 = load i32, i32* %6, align 4
  store i32 %91, i32* %8, align 4
  br label %92

92:                                               ; preds = %86, %78
  %93 = load i32, i32* %4, align 4
  %94 = getelementptr inbounds [100 x i32], [100 x i32]* %9, i64 0, i64 0
  %95 = load i32, i32* %6, align 4
  %96 = sext i32 %95 to i64
  %97 = getelementptr inbounds i32, i32* %94, i64 %96
  %98 = load i32, i32* %97, align 4
  %99 = icmp sgt i32 %93, %98
  br i1 %99, label %100, label %106

100:                                              ; preds = %92
  %101 = load i32, i32* %6, align 4
  %102 = sext i32 %101 to i64
  %103 = getelementptr inbounds [100 x i32], [100 x i32]* %9, i64 0, i64 %102
  %104 = load i32, i32* %103, align 4
  store i32 %104, i32* %4, align 4
  %105 = load i32, i32* %6, align 4
  store i32 %105, i32* %7, align 4
  br label %106

106:                                              ; preds = %100, %92
  br label %107

107:                                              ; preds = %106
  %108 = load i32, i32* %6, align 4
  %109 = add nsw i32 %108, 1
  store i32 %109, i32* %6, align 4
  br label %73

110:                                              ; preds = %73
  %111 = load i32, i32* %8, align 4
  %112 = sub nsw i32 %111, 1
  %113 = sext i32 %112 to i64
  %114 = getelementptr inbounds [100 x i32], [100 x i32]* %5, i64 0, i64 %113
  %115 = load i32, i32* %114, align 4
  %116 = add nsw i32 %115, 1
  store i32 %116, i32* %6, align 4
  br label %117

117:                                              ; preds = %132, %110
  %118 = load i32, i32* %6, align 4
  %119 = load i32, i32* %8, align 4
  %120 = sext i32 %119 to i64
  %121 = getelementptr inbounds [100 x i32], [100 x i32]* %5, i64 0, i64 %120
  %122 = load i32, i32* %121, align 4
  %123 = icmp slt i32 %118, %122
  br i1 %123, label %124, label %135

124:                                              ; preds = %117
  %125 = getelementptr inbounds [1000 x i8], [1000 x i8]* %2, i64 0, i64 0
  %126 = load i32, i32* %6, align 4
  %127 = sext i32 %126 to i64
  %128 = getelementptr inbounds i8, i8* %125, i64 %127
  %129 = load i8, i8* %128, align 1
  %130 = sext i8 %129 to i32
  %131 = call i32 (i8*, ...) @printf(i8* getelementptr inbounds ([3 x i8], [3 x i8]* @.str, i64 0, i64 0), i32 %130)
  br label %132

132:                                              ; preds = %124
  %133 = load i32, i32* %6, align 4
  %134 = add nsw i32 %133, 1
  store i32 %134, i32* %6, align 4
  br label %117

135:                                              ; preds = %117
  %136 = call i32 (i8*, ...) @printf(i8* getelementptr inbounds ([2 x i8], [2 x i8]* @.str.1, i64 0, i64 0))
  %137 = load i32, i32* %7, align 4
  %138 = sub nsw i32 %137, 1
  %139 = sext i32 %138 to i64
  %140 = getelementptr inbounds [100 x i32], [100 x i32]* %5, i64 0, i64 %139
  %141 = load i32, i32* %140, align 4
  %142 = add nsw i32 %141, 1
  store i32 %142, i32* %6, align 4
  br label %143

143:                                              ; preds = %158, %135
  %144 = load i32, i32* %6, align 4
  %145 = load i32, i32* %7, align 4
  %146 = sext i32 %145 to i64
  %147 = getelementptr inbounds [100 x i32], [100 x i32]* %5, i64 0, i64 %146
  %148 = load i32, i32* %147, align 4
  %149 = icmp slt i32 %144, %148
  br i1 %149, label %150, label %161

150:                                              ; preds = %143
  %151 = getelementptr inbounds [1000 x i8], [1000 x i8]* %2, i64 0, i64 0
  %152 = load i32, i32* %6, align 4
  %153 = sext i32 %152 to i64
  %154 = getelementptr inbounds i8, i8* %151, i64 %153
  %155 = load i8, i8* %154, align 1
  %156 = sext i8 %155 to i32
  %157 = call i32 (i8*, ...) @printf(i8* getelementptr inbounds ([3 x i8], [3 x i8]* @.str, i64 0, i64 0), i32 %156)
  br label %158

158:                                              ; preds = %150
  %159 = load i32, i32* %6, align 4
  %160 = add nsw i32 %159, 1
  store i32 %160, i32* %6, align 4
  br label %143

161:                                              ; preds = %143
  ret i32 0
}

declare dso_local i32 @gets(...) #1

; Function Attrs: nounwind readonly
declare dso_local i64 @strlen(i8*) #2

declare dso_local i32 @printf(i8*, ...) #1


!llvm.module.flags = !{!0}
!llvm.ident = !{!1}

!0 = !{i32 1, !"wchar_size", i32 4}
!1 = !{!"clang version 10.0.0-4ubuntu1 "}
